target datalayout = "e-m:e-p270:32:32-p271:32:32-p272:64:64-i64:64-i128:128-f80:128-n8:16:32:64-S128"
target triple = "x86_64-pc-linux-gnu"

%struct._object = type { %union.anon, ptr }
%union.anon = type { i64 }
%struct.anon = type { i32, i32 }

; Function Attrs: inlinehint nounwind uwtable
define internal i64 @_Py_REFCNT(ptr noundef %0) #2 {
  %2 = alloca ptr, align 8
  store ptr %0, ptr %2, align 8, !tbaa !4
  %3 = load ptr, ptr %2, align 8, !tbaa !4
  %4 = getelementptr inbounds nuw %struct._object, ptr %3, i32 0, i32 0
  %5 = getelementptr inbounds nuw %struct.anon, ptr %4, i32 0, i32 0
  %6 = load i32, ptr %5, align 8, !tbaa !14
  %7 = zext i32 %6 to i64
  ret i64 %7
}

; Function Attrs: nounwind uwtable
define hidden i32 @_PyIOBase_finalize(ptr noundef %0) #0 {
  %2 = alloca i32, align 4
  %3 = alloca ptr, align 8
  %4 = alloca i32, align 4
  %5 = alloca i32, align 4
  store ptr %0, ptr %3, align 8, !tbaa !4
  call void @llvm.lifetime.start.p0(i64 4, ptr %4) #6
  %6 = load ptr, ptr %3, align 8, !tbaa !4
  %7 = call i64 @_Py_REFCNT(ptr noundef %6)
  %8 = icmp eq i64 %7, 0
  %9 = zext i1 %8 to i32
  store i32 %9, ptr %4, align 4, !tbaa !9
  %10 = load i32, ptr %4, align 4, !tbaa !9
  %11 = icmp ne i32 %10, 0
  br i1 %11, label %12, label %15

12:                                               ; preds = %1
  %13 = load ptr, ptr %3, align 8, !tbaa !4
  %14 = call i32 @PyObject_CallFinalizerFromDealloc(ptr noundef %13)
  store i32 %14, ptr %2, align 4
  store i32 1, ptr %5, align 4
  br label %17

15:                                               ; preds = %1
  %16 = load ptr, ptr %3, align 8, !tbaa !4
  call void @PyObject_CallFinalizer(ptr noundef %16)
  store i32 0, ptr %2, align 4
  store i32 1, ptr %5, align 4
  br label %17

17:                                               ; preds = %15, %12
  call void @llvm.lifetime.end.p0(i64 4, ptr %4) #6
  %18 = load i32, ptr %2, align 4
  ret i32 %18
}