; Function Attrs: nounwind uwtable
define hidden i32 @_PyIOBase_finalize(ptr noundef %0) local_unnamed_addr #0 {
  %.val = load i32, ptr %0, align 8, !tbaa !9
  %2 = icmp eq i32 %.val, 0
  br i1 %2, label %3, label %5

3:                                                ; preds = %1
  %4 = tail call i32 @PyObject_CallFinalizerFromDealloc(ptr noundef nonnull %0) #6
  br label %6

5:                                                ; preds = %1
  tail call void @PyObject_CallFinalizer(ptr noundef nonnull %0) #6
  br label %6

6:                                                ; preds = %5, %3
  %.0 = phi i32 [ %4, %3 ], [ 0, %5 ]
  ret i32 %.0
}